; Function Attrs: nounwind uwtable
define internal fastcc void @PrintFinalStats(ptr noundef %0) unnamed_addr #0 {
  %2 = alloca i64, align 8
  %3 = alloca i64, align 8
  %4 = alloca i64, align 8
  %5 = alloca i64, align 8
  %6 = alloca i64, align 8
  %7 = alloca i64, align 8
  %8 = alloca i64, align 8
  %9 = alloca i64, align 8
  %10 = alloca i64, align 8
  call void @llvm.lifetime.start.p0(i64 8, ptr nonnull %2) #8
  call void @llvm.lifetime.start.p0(i64 8, ptr nonnull %3) #8
  call void @llvm.lifetime.start.p0(i64 8, ptr nonnull %4) #8
  call void @llvm.lifetime.start.p0(i64 8, ptr nonnull %5) #8
  call void @llvm.lifetime.start.p0(i64 8, ptr nonnull %6) #8
  call void @llvm.lifetime.start.p0(i64 8, ptr nonnull %7) #8
  call void @llvm.lifetime.start.p0(i64 8, ptr nonnull %8) #8
  call void @llvm.lifetime.start.p0(i64 8, ptr nonnull %9) #8
  call void @llvm.lifetime.start.p0(i64 8, ptr nonnull %10) #8
  %11 = call i32 @CVodeGetNumSteps(ptr noundef %0, ptr noundef nonnull %2) #8
  %12 = icmp slt i32 %11, 0
  br i1 %12, label %13, label %check_retval.exit

13:                                               ; preds = %1
  %14 = load ptr, ptr @stderr, align 8, !tbaa !4
  %15 = call i32 (ptr, ptr, ...) @fprintf(ptr noundef %14, ptr noundef nonnull @.str.25, ptr noundef nonnull @.str.12, i32 noundef %11) #9
  br label %check_retval.exit

check_retval.exit:                                ; preds = %1, %13
  %16 = call i32 @CVodeGetNumRhsEvals(ptr noundef %0, ptr noundef nonnull %3) #8
  %17 = icmp slt i32 %16, 0
  br i1 %17, label %18, label %check_retval.exit10

18:                                               ; preds = %check_retval.exit
  %19 = load ptr, ptr @stderr, align 8, !tbaa !4
  %20 = call i32 (ptr, ptr, ...) @fprintf(ptr noundef %19, ptr noundef nonnull @.str.25, ptr noundef nonnull @.str.13, i32 noundef %16) #9
  br label %check_retval.exit10

check_retval.exit10:                              ; preds = %check_retval.exit, %18
  %21 = call i32 @CVodeGetNumLinSolvSetups(ptr noundef %0, ptr noundef nonnull %4) #8
  %22 = icmp slt i32 %21, 0
  br i1 %22, label %23, label %check_retval.exit12

23:                                               ; preds = %check_retval.exit10
  %24 = load ptr, ptr @stderr, align 8, !tbaa !4
  %25 = call i32 (ptr, ptr, ...) @fprintf(ptr noundef %24, ptr noundef nonnull @.str.25, ptr noundef nonnull @.str.14, i32 noundef %21) #9
  br label %check_retval.exit12

check_retval.exit12:                              ; preds = %check_retval.exit10, %23
  %26 = call i32 @CVodeGetNumErrTestFails(ptr noundef %0, ptr noundef nonnull %10) #8
  %27 = icmp slt i32 %26, 0
  br i1 %27, label %28, label %check_retval.exit14

28:                                               ; preds = %check_retval.exit12
  %29 = load ptr, ptr @stderr, align 8, !tbaa !4
  %30 = call i32 (ptr, ptr, ...) @fprintf(ptr noundef %29, ptr noundef nonnull @.str.25, ptr noundef nonnull @.str.15, i32 noundef %26) #9
  br label %check_retval.exit14

check_retval.exit14:                              ; preds = %check_retval.exit12, %28
  %31 = call i32 @CVodeGetNumNonlinSolvIters(ptr noundef %0, ptr noundef nonnull %7) #8
  %32 = icmp slt i32 %31, 0
  br i1 %32, label %33, label %check_retval.exit16

33:                                               ; preds = %check_retval.exit14
  %34 = load ptr, ptr @stderr, align 8, !tbaa !4
  %35 = call i32 (ptr, ptr, ...) @fprintf(ptr noundef %34, ptr noundef nonnull @.str.25, ptr noundef nonnull @.str.16, i32 noundef %31) #9
  br label %check_retval.exit16

check_retval.exit16:                              ; preds = %check_retval.exit14, %33
  %36 = call i32 @CVodeGetNumNonlinSolvConvFails(ptr noundef %0, ptr noundef nonnull %8) #8
  %37 = icmp slt i32 %36, 0
  br i1 %37, label %38, label %check_retval.exit18

38:                                               ; preds = %check_retval.exit16
  %39 = load ptr, ptr @stderr, align 8, !tbaa !4
  %40 = call i32 (ptr, ptr, ...) @fprintf(ptr noundef %39, ptr noundef nonnull @.str.25, ptr noundef nonnull @.str.17, i32 noundef %36) #9
  br label %check_retval.exit18

check_retval.exit18:                              ; preds = %check_retval.exit16, %38
  %41 = call i32 @CVodeGetNumStepSolveFails(ptr noundef %0, ptr noundef nonnull %9) #8
  %42 = icmp slt i32 %41, 0
  br i1 %42, label %43, label %check_retval.exit20

43:                                               ; preds = %check_retval.exit18
  %44 = load ptr, ptr @stderr, align 8, !tbaa !4
  %45 = call i32 (ptr, ptr, ...) @fprintf(ptr noundef %44, ptr noundef nonnull @.str.25, ptr noundef nonnull @.str.18, i32 noundef %41) #9
  br label %check_retval.exit20

check_retval.exit20:                              ; preds = %check_retval.exit18, %43
  %46 = call i32 @CVodeGetNumJacEvals(ptr noundef %0, ptr noundef nonnull %5) #8
  %47 = icmp slt i32 %46, 0
  br i1 %47, label %48, label %check_retval.exit22

48:                                               ; preds = %check_retval.exit20
  %49 = load ptr, ptr @stderr, align 8, !tbaa !4
  %50 = call i32 (ptr, ptr, ...) @fprintf(ptr noundef %49, ptr noundef nonnull @.str.25, ptr noundef nonnull @.str.19, i32 noundef %46) #9
  br label %check_retval.exit22

check_retval.exit22:                              ; preds = %check_retval.exit20, %48
  %51 = call i32 @CVodeGetNumLinRhsEvals(ptr noundef %0, ptr noundef nonnull %6) #8
  %52 = icmp slt i32 %51, 0
  br i1 %52, label %53, label %check_retval.exit24

53:                                               ; preds = %check_retval.exit22
  %54 = load ptr, ptr @stderr, align 8, !tbaa !4
  %55 = call i32 (ptr, ptr, ...) @fprintf(ptr noundef %54, ptr noundef nonnull @.str.25, ptr noundef nonnull @.str.20, i32 noundef %51) #9
  br label %check_retval.exit24

check_retval.exit24:                              ; preds = %check_retval.exit22, %53
  %puts = call i32 @puts(ptr nonnull dereferenceable(1) @str.2)
  %56 = load i64, ptr %2, align 8, !tbaa !23
  %57 = load i64, ptr %3, align 8, !tbaa !23
  %58 = load i64, ptr %4, align 8, !tbaa !23
  %59 = load i64, ptr %6, align 8, !tbaa !23
  %60 = load i64, ptr %5, align 8, !tbaa !23
  %61 = call i32 (ptr, ...) @printf(ptr noundef nonnull dereferenceable(1) @.str.22, i64 noundef %56, i64 noundef %57, i64 noundef %58, i64 noundef %59, i64 noundef %60)
  %62 = load i64, ptr %7, align 8, !tbaa !23
  %63 = load i64, ptr %8, align 8, !tbaa !23
  %64 = load i64, ptr %10, align 8, !tbaa !23
  %65 = load i64, ptr %9, align 8, !tbaa !23
  %66 = call i32 (ptr, ...) @printf(ptr noundef nonnull dereferenceable(1) @.str.23, i64 noundef %62, i64 noundef %63, i64 noundef %64, i64 noundef %65)
  call void @llvm.lifetime.end.p0(i64 8, ptr nonnull %10) #8
  call void @llvm.lifetime.end.p0(i64 8, ptr nonnull %9) #8
  call void @llvm.lifetime.end.p0(i64 8, ptr nonnull %8) #8
  call void @llvm.lifetime.end.p0(i64 8, ptr nonnull %7) #8
  call void @llvm.lifetime.end.p0(i64 8, ptr nonnull %6) #8
  call void @llvm.lifetime.end.p0(i64 8, ptr nonnull %5) #8
  call void @llvm.lifetime.end.p0(i64 8, ptr nonnull %4) #8
  call void @llvm.lifetime.end.p0(i64 8, ptr nonnull %3) #8
  call void @llvm.lifetime.end.p0(i64 8, ptr nonnull %2) #8
  ret void
}